target datalayout = "e-m:e-p270:32:32-p271:32:32-p272:64:64-i64:64-i128:128-f80:128-n8:16:32:64-S128"
target triple = "x86_64-pc-linux-gnu"

%struct.gmx_mtop_t = type { ptr, %struct.gmx_ffparams_t, %"class.std::vector.10", %"class.std::vector.15", i8, %"class.std::unique_ptr", i32, %struct.SimulationGroups, %struct.t_symtab, i8, %"class.std::vector", %"class.std::vector.33", i32, i32 }
%struct.gmx_ffparams_t = type { i32, %"class.std::vector", %"class.std::vector.0", double, float, %struct.gmx_cmap_t }
%"class.std::vector.0" = type { %"struct.std::_Vector_base.1" }
%"struct.std::_Vector_base.1" = type { %"struct.std::_Vector_base<t_iparams, std::allocator<t_iparams>>::_Vector_impl" }
%"struct.std::_Vector_base<t_iparams, std::allocator<t_iparams>>::_Vector_impl" = type { %"struct.std::_Vector_base<t_iparams, std::allocator<t_iparams>>::_Vector_impl_data" }
%"struct.std::_Vector_base<t_iparams, std::allocator<t_iparams>>::_Vector_impl_data" = type { ptr, ptr, ptr }
%struct.gmx_cmap_t = type { i32, %"class.std::vector.5" }
%"class.std::vector.5" = type { %"struct.std::_Vector_base.6" }
%"struct.std::_Vector_base.6" = type { %"struct.std::_Vector_base<gmx_cmapdata_t, std::allocator<gmx_cmapdata_t>>::_Vector_impl" }
%"struct.std::_Vector_base<gmx_cmapdata_t, std::allocator<gmx_cmapdata_t>>::_Vector_impl" = type { %"struct.std::_Vector_base<gmx_cmapdata_t, std::allocator<gmx_cmapdata_t>>::_Vector_impl_data" }
%"struct.std::_Vector_base<gmx_cmapdata_t, std::allocator<gmx_cmapdata_t>>::_Vector_impl_data" = type { ptr, ptr, ptr }
%"class.std::vector.10" = type { %"struct.std::_Vector_base.11" }
%"struct.std::_Vector_base.11" = type { %"struct.std::_Vector_base<gmx_moltype_t, std::allocator<gmx_moltype_t>>::_Vector_impl" }
%"struct.std::_Vector_base<gmx_moltype_t, std::allocator<gmx_moltype_t>>::_Vector_impl" = type { %"struct.std::_Vector_base<gmx_moltype_t, std::allocator<gmx_moltype_t>>::_Vector_impl_data" }
%"struct.std::_Vector_base<gmx_moltype_t, std::allocator<gmx_moltype_t>>::_Vector_impl_data" = type { ptr, ptr, ptr }
%"class.std::vector.15" = type { %"struct.std::_Vector_base.16" }
%"struct.std::_Vector_base.16" = type { %"struct.std::_Vector_base<gmx_molblock_t, std::allocator<gmx_molblock_t>>::_Vector_impl" }
%"struct.std::_Vector_base<gmx_molblock_t, std::allocator<gmx_molblock_t>>::_Vector_impl" = type { %"struct.std::_Vector_base<gmx_molblock_t, std::allocator<gmx_molblock_t>>::_Vector_impl_data" }
%"struct.std::_Vector_base<gmx_molblock_t, std::allocator<gmx_molblock_t>>::_Vector_impl_data" = type { ptr, ptr, ptr }
%"class.std::unique_ptr" = type { %"struct.std::__uniq_ptr_data" }
%"struct.std::__uniq_ptr_data" = type { %"class.std::__uniq_ptr_impl" }
%"class.std::__uniq_ptr_impl" = type { %"class.std::tuple" }
%"class.std::tuple" = type { %"struct.std::_Tuple_impl" }
%"struct.std::_Tuple_impl" = type { %"struct.std::_Head_base.21" }
%"struct.std::_Head_base.21" = type { ptr }
%struct.SimulationGroups = type { %"struct.gmx::EnumerationArray", %"class.std::vector.22", %"struct.gmx::EnumerationArray.27" }
%"struct.gmx::EnumerationArray" = type { [10 x %"class.std::vector"] }
%"class.std::vector.22" = type { %"struct.std::_Vector_base.23" }
%"struct.std::_Vector_base.23" = type { %"struct.std::_Vector_base<char **, std::allocator<char **>>::_Vector_impl" }
%"struct.std::_Vector_base<char **, std::allocator<char **>>::_Vector_impl" = type { %"struct.std::_Vector_base<char **, std::allocator<char **>>::_Vector_impl_data" }
%"struct.std::_Vector_base<char **, std::allocator<char **>>::_Vector_impl_data" = type { ptr, ptr, ptr }
%"struct.gmx::EnumerationArray.27" = type { [10 x %"class.std::vector.28"] }
%"class.std::vector.28" = type { %"struct.std::_Vector_base.29" }
%"struct.std::_Vector_base.29" = type { %"struct.std::_Vector_base<unsigned char, std::allocator<unsigned char>>::_Vector_impl" }
%"struct.std::_Vector_base<unsigned char, std::allocator<unsigned char>>::_Vector_impl" = type { %"struct.std::_Vector_base<unsigned char, std::allocator<unsigned char>>::_Vector_impl_data" }
%"struct.std::_Vector_base<unsigned char, std::allocator<unsigned char>>::_Vector_impl_data" = type { ptr, ptr, ptr }
%struct.t_symtab = type { i32, ptr }
%"class.std::vector" = type { %"struct.std::_Vector_base" }
%"struct.std::_Vector_base" = type { %"struct.std::_Vector_base<int, std::allocator<int>>::_Vector_impl" }
%"struct.std::_Vector_base<int, std::allocator<int>>::_Vector_impl" = type { %"struct.std::_Vector_base<int, std::allocator<int>>::_Vector_impl_data" }
%"struct.std::_Vector_base<int, std::allocator<int>>::_Vector_impl_data" = type { ptr, ptr, ptr }
%"class.std::vector.33" = type { %"struct.std::_Vector_base.34" }
%"struct.std::_Vector_base.34" = type { %"struct.std::_Vector_base<MoleculeBlockIndices, std::allocator<MoleculeBlockIndices>>::_Vector_impl" }
%"struct.std::_Vector_base<MoleculeBlockIndices, std::allocator<MoleculeBlockIndices>>::_Vector_impl" = type { %"struct.std::_Vector_base<MoleculeBlockIndices, std::allocator<MoleculeBlockIndices>>::_Vector_impl_data" }
%"struct.std::_Vector_base<MoleculeBlockIndices, std::allocator<MoleculeBlockIndices>>::_Vector_impl_data" = type { ptr, ptr, ptr }
%struct.anon.67 = type { [3 x float], [3 x float], [3 x float], [3 x float] }
%union.t_iparams = type { %struct.anon.67 }
%struct.anon.64 = type { float, float }

; Function Attrs: mustprogress nounwind uwtable
define linkonce_odr noundef i64 @_ZNKSt6vectorIiSaIiEE4sizeEv(ptr noundef nonnull align 8 dereferenceable(24) %0) #0 comdat align 2 {
  %2 = alloca ptr, align 8
  store ptr %0, ptr %2, align 8, !tbaa !125
  %3 = load ptr, ptr %2, align 8
  %4 = getelementptr inbounds nuw %"struct.std::_Vector_base", ptr %3, i32 0, i32 0
  %5 = getelementptr inbounds nuw %"struct.std::_Vector_base<int, std::allocator<int>>::_Vector_impl_data", ptr %4, i32 0, i32 1
  %6 = load ptr, ptr %5, align 8, !tbaa !127
  %7 = getelementptr inbounds nuw %"struct.std::_Vector_base", ptr %3, i32 0, i32 0
  %8 = getelementptr inbounds nuw %"struct.std::_Vector_base<int, std::allocator<int>>::_Vector_impl_data", ptr %7, i32 0, i32 0
  %9 = load ptr, ptr %8, align 8, !tbaa !128
  %10 = ptrtoint ptr %6 to i64
  %11 = ptrtoint ptr %9 to i64
  %12 = sub i64 %10, %11
  %13 = sdiv exact i64 %12, 4
  ret i64 %13
}

; Function Attrs: mustprogress nounwind uwtable
define linkonce_odr noundef nonnull align 4 dereferenceable(48) ptr @_ZNKSt6vectorI9t_iparamsSaIS0_EEixEm(ptr noundef nonnull align 8 dereferenceable(24) %0, i64 noundef %1) #0 comdat align 2 {
  %3 = alloca ptr, align 8
  %4 = alloca i64, align 8
  store ptr %0, ptr %3, align 8, !tbaa !233
  store i64 %1, ptr %4, align 8, !tbaa !102
  %5 = load ptr, ptr %3, align 8
  %6 = getelementptr inbounds nuw %"struct.std::_Vector_base.1", ptr %5, i32 0, i32 0
  %7 = getelementptr inbounds nuw %"struct.std::_Vector_base<t_iparams, std::allocator<t_iparams>>::_Vector_impl_data", ptr %6, i32 0, i32 0
  %8 = load ptr, ptr %7, align 8, !tbaa !234
  %9 = load i64, ptr %4, align 8, !tbaa !102
  %10 = getelementptr inbounds nuw %union.t_iparams, ptr %8, i64 %9
  ret ptr %10
}

; Function Attrs: mustprogress nounwind uwtable
define linkonce_odr noundef nonnull align 4 dereferenceable(4) ptr @_ZNKSt6vectorIiSaIiEEixEm(ptr noundef nonnull align 8 dereferenceable(24) %0, i64 noundef %1) #0 comdat align 2 {
  %3 = alloca ptr, align 8
  %4 = alloca i64, align 8
  store ptr %0, ptr %3, align 8, !tbaa !125
  store i64 %1, ptr %4, align 8, !tbaa !102
  %5 = load ptr, ptr %3, align 8
  %6 = getelementptr inbounds nuw %"struct.std::_Vector_base", ptr %5, i32 0, i32 0
  %7 = getelementptr inbounds nuw %"struct.std::_Vector_base<int, std::allocator<int>>::_Vector_impl_data", ptr %6, i32 0, i32 0
  %8 = load ptr, ptr %7, align 8, !tbaa !128
  %9 = load i64, ptr %4, align 8, !tbaa !102
  %10 = getelementptr inbounds nuw i32, ptr %8, i64 %9
  ret ptr %10
}

; Function Attrs: mustprogress nounwind uwtable
define linkonce_odr noundef i64 @_ZN3gmx5ssizeISt6vectorIiSaIiEEEElRKT_(ptr noundef nonnull align 8 dereferenceable(24) %0) #0 comdat {
  %2 = alloca ptr, align 8
  store ptr %0, ptr %2, align 8, !tbaa !125
  %3 = load ptr, ptr %2, align 8, !tbaa !125
  %4 = call noundef i64 @_ZNKSt6vectorIiSaIiEE4sizeEv(ptr noundef nonnull align 8 dereferenceable(24) %3) #16
  ret i64 %4
}

; Function Attrs: mustprogress uwtable
define noundef zeroext i1 @_Z24havePerturbedConstraintsRK10gmx_mtop_t(ptr noundef nonnull align 8 dereferenceable(768) %0) #3 {
  %2 = alloca i1, align 1
  %3 = alloca ptr, align 8
  %4 = alloca ptr, align 8
  %5 = alloca i64, align 8
  %6 = alloca i32, align 4
  %7 = alloca ptr, align 8
  store ptr %0, ptr %3, align 8, !tbaa !4
  call void @llvm.lifetime.start.p0(i64 8, ptr %4) #16
  %8 = load ptr, ptr %3, align 8, !tbaa !4
  %9 = getelementptr inbounds nuw %struct.gmx_mtop_t, ptr %8, i32 0, i32 1
  store ptr %9, ptr %4, align 8, !tbaa !433
  call void @llvm.lifetime.start.p0(i64 8, ptr %5) #16
  store i64 0, ptr %5, align 8, !tbaa !102
  br label %10

10:                                               ; preds = %49, %1
  %11 = load i64, ptr %5, align 8, !tbaa !102
  %12 = load ptr, ptr %4, align 8, !tbaa !433
  %13 = getelementptr inbounds nuw %struct.gmx_ffparams_t, ptr %12, i32 0, i32 1
  %14 = call noundef i64 @_ZN3gmx5ssizeISt6vectorIiSaIiEEEElRKT_(ptr noundef nonnull align 8 dereferenceable(24) %13)
  %15 = icmp slt i64 %11, %14
  br i1 %15, label %17, label %16

16:                                               ; preds = %10
  store i32 2, ptr %6, align 4
  br label %52

17:                                               ; preds = %10
  %18 = load ptr, ptr %4, align 8, !tbaa !433
  %19 = getelementptr inbounds nuw %struct.gmx_ffparams_t, ptr %18, i32 0, i32 1
  %20 = load i64, ptr %5, align 8, !tbaa !102
  %21 = call noundef nonnull align 4 dereferenceable(4) ptr @_ZNKSt6vectorIiSaIiEEixEm(ptr noundef nonnull align 8 dereferenceable(24) %19, i64 noundef %20) #16
  %22 = load i32, ptr %21, align 4, !tbaa !9
  %23 = icmp eq i32 %22, 62
  br i1 %23, label %31, label %24

24:                                               ; preds = %17
  %25 = load ptr, ptr %4, align 8, !tbaa !433
  %26 = getelementptr inbounds nuw %struct.gmx_ffparams_t, ptr %25, i32 0, i32 1
  %27 = load i64, ptr %5, align 8, !tbaa !102
  %28 = call noundef nonnull align 4 dereferenceable(4) ptr @_ZNKSt6vectorIiSaIiEEixEm(ptr noundef nonnull align 8 dereferenceable(24) %26, i64 noundef %27) #16
  %29 = load i32, ptr %28, align 4, !tbaa !9
  %30 = icmp eq i32 %29, 63
  br i1 %30, label %31, label %48

31:                                               ; preds = %24, %17
  call void @llvm.lifetime.start.p0(i64 8, ptr %7) #16
  %32 = load ptr, ptr %4, align 8, !tbaa !433
  %33 = getelementptr inbounds nuw %struct.gmx_ffparams_t, ptr %32, i32 0, i32 2
  %34 = load i64, ptr %5, align 8, !tbaa !102
  %35 = call noundef nonnull align 4 dereferenceable(48) ptr @_ZNKSt6vectorI9t_iparamsSaIS0_EEixEm(ptr noundef nonnull align 8 dereferenceable(24) %33, i64 noundef %34) #16
  store ptr %35, ptr %7, align 8, !tbaa !213
  %36 = load ptr, ptr %7, align 8, !tbaa !213
  %37 = getelementptr inbounds nuw %struct.anon.64, ptr %36, i32 0, i32 0
  %38 = load float, ptr %37, align 4, !tbaa !215
  %39 = load ptr, ptr %7, align 8, !tbaa !213
  %40 = getelementptr inbounds nuw %struct.anon.64, ptr %39, i32 0, i32 1
  %41 = load float, ptr %40, align 4, !tbaa !215
  %42 = fcmp une float %38, %41
  br i1 %42, label %43, label %44

43:                                               ; preds = %31
  store i1 true, ptr %2, align 1
  store i32 1, ptr %6, align 4
  br label %45

44:                                               ; preds = %31
  store i32 0, ptr %6, align 4
  br label %45

45:                                               ; preds = %44, %43
  call void @llvm.lifetime.end.p0(i64 8, ptr %7) #16
  %46 = load i32, ptr %6, align 4
  switch i32 %46, label %52 [
    i32 0, label %47
  ]

47:                                               ; preds = %45
  br label %48

48:                                               ; preds = %47, %24
  br label %49

49:                                               ; preds = %48
  %50 = load i64, ptr %5, align 8, !tbaa !102
  %51 = add nsw i64 %50, 1
  store i64 %51, ptr %5, align 8, !tbaa !102
  br label %10, !llvm.loop !530

52:                                               ; preds = %45, %16
  call void @llvm.lifetime.end.p0(i64 8, ptr %5) #16
  %53 = load i32, ptr %6, align 4
  switch i32 %53, label %55 [
    i32 2, label %54
  ]

54:                                               ; preds = %52
  store i1 false, ptr %2, align 1
  store i32 1, ptr %6, align 4
  br label %55

55:                                               ; preds = %54, %52
  call void @llvm.lifetime.end.p0(i64 8, ptr %4) #16
  %56 = load i1, ptr %2, align 1
  ret i1 %56
}