; Function Attrs: mustprogress nofree norecurse nosync nounwind willreturn memory(read, inaccessiblemem: none) uwtable
define noundef zeroext i1 @_Z24havePerturbedConstraintsRK10gmx_mtop_t(ptr noundef nonnull readonly align 8 captures(none) dereferenceable(768) %0) local_unnamed_addr #2 {
  %2 = getelementptr inbounds nuw i8, ptr %0, i64 16
  %3 = getelementptr inbounds nuw i8, ptr %0, i64 24
  %4 = load ptr, ptr %3, align 8, !tbaa !91
  %5 = load ptr, ptr %2, align 8, !tbaa !92
  %6 = ptrtoint ptr %4 to i64
  %7 = ptrtoint ptr %5 to i64
  %8 = sub i64 %6, %7
  %9 = ashr exact i64 %8, 2
  %.not18 = icmp sgt i64 %9, 0
  br i1 %.not18, label %.lr.ph, label %.critedge

.lr.ph:                                           ; preds = %1
  %10 = getelementptr inbounds nuw i8, ptr %0, i64 40
  %11 = load ptr, ptr %10, align 8
  br label %12

12:                                               ; preds = %.lr.ph, %22
  %.01719 = phi i64 [ 0, %.lr.ph ], [ %23, %22 ]
  %13 = getelementptr inbounds nuw i32, ptr %5, i64 %.01719
  %14 = load i32, ptr %13, align 4, !tbaa !83
  %15 = and i32 %14, -2
  %switch = icmp eq i32 %15, 62
  br i1 %switch, label %16, label %22

16:                                               ; preds = %12
  %17 = getelementptr inbounds nuw %union.t_iparams, ptr %11, i64 %.01719
  %18 = load float, ptr %17, align 4, !tbaa !148
  %19 = getelementptr inbounds nuw i8, ptr %17, i64 4
  %20 = load float, ptr %19, align 4, !tbaa !148
  %21 = fcmp oeq float %18, %20
  br i1 %21, label %22, label %.critedge

22:                                               ; preds = %12, %16
  %23 = add nuw nsw i64 %.01719, 1
  %exitcond.not = icmp eq i64 %23, %9
  br i1 %exitcond.not, label %.critedge, label %12, !llvm.loop !293

.critedge:                                        ; preds = %16, %22, %1
  %.not.lcssa = phi i1 [ false, %1 ], [ false, %22 ], [ true, %16 ]
  ret i1 %.not.lcssa
}